target datalayout = "e-m:e-p270:32:32-p271:32:32-p272:64:64-i64:64-i128:128-f80:128-n8:16:32:64-S128"
target triple = "x86_64-pc-linux-gnu"

; Function Attrs: alwaysinline nounwind willreturn memory(none) uwtable
define internal zeroext i8 @av_clip_uint8_c(i32 noundef %0) #3 {
  %2 = alloca i8, align 1
  %3 = alloca i32, align 4
  store i32 %0, ptr %3, align 4, !tbaa !9
  %4 = load i32, ptr %3, align 4, !tbaa !9
  %5 = and i32 %4, -256
  %6 = icmp ne i32 %5, 0
  br i1 %6, label %7, label %12

7:                                                ; preds = %1
  %8 = load i32, ptr %3, align 4, !tbaa !9
  %9 = xor i32 %8, -1
  %10 = ashr i32 %9, 31
  %11 = trunc i32 %10 to i8
  store i8 %11, ptr %2, align 1
  br label %15

12:                                               ; preds = %1
  %13 = load i32, ptr %3, align 4, !tbaa !9
  %14 = trunc i32 %13 to i8
  store i8 %14, ptr %2, align 1
  br label %15

15:                                               ; preds = %12, %7
  %16 = load i8, ptr %2, align 1
  ret i8 %16
}

; Function Attrs: alwaysinline nounwind willreturn memory(none) uwtable
define internal i32 @av_clip_c(i32 noundef %0, i32 noundef %1, i32 noundef %2) #3 {
  %4 = alloca i32, align 4
  %5 = alloca i32, align 4
  %6 = alloca i32, align 4
  %7 = alloca i32, align 4
  store i32 %0, ptr %5, align 4, !tbaa !9
  store i32 %1, ptr %6, align 4, !tbaa !9
  store i32 %2, ptr %7, align 4, !tbaa !9
  %8 = load i32, ptr %5, align 4, !tbaa !9
  %9 = load i32, ptr %6, align 4, !tbaa !9
  %10 = icmp slt i32 %8, %9
  br i1 %10, label %11, label %13

11:                                               ; preds = %3
  %12 = load i32, ptr %6, align 4, !tbaa !9
  store i32 %12, ptr %4, align 4
  br label %21

13:                                               ; preds = %3
  %14 = load i32, ptr %5, align 4, !tbaa !9
  %15 = load i32, ptr %7, align 4, !tbaa !9
  %16 = icmp sgt i32 %14, %15
  br i1 %16, label %17, label %19

17:                                               ; preds = %13
  %18 = load i32, ptr %7, align 4, !tbaa !9
  store i32 %18, ptr %4, align 4
  br label %21

19:                                               ; preds = %13
  %20 = load i32, ptr %5, align 4, !tbaa !9
  store i32 %20, ptr %4, align 4
  br label %21

21:                                               ; preds = %19, %17, %11
  %22 = load i32, ptr %4, align 4
  ret i32 %22
}

; Function Attrs: nounwind uwtable
define internal void @prof_grad_filter_8(ptr noundef %0, ptr noundef %1, i64 noundef %2, ptr noundef %3, i64 noundef %4, i32 noundef %5, i32 noundef %6) #0 {
  %8 = alloca ptr, align 8
  %9 = alloca ptr, align 8
  %10 = alloca i64, align 8
  %11 = alloca ptr, align 8
  %12 = alloca i64, align 8
  %13 = alloca i32, align 4
  %14 = alloca i32, align 4
  %15 = alloca i32, align 4
  %16 = alloca ptr, align 8
  %17 = alloca i32, align 4
  %18 = alloca i32, align 4
  %19 = alloca ptr, align 8
  %20 = alloca i32, align 4
  store ptr %0, ptr %8, align 8, !tbaa !142
  store ptr %1, ptr %9, align 8, !tbaa !142
  store i64 %2, ptr %10, align 8, !tbaa !146
  store ptr %3, ptr %11, align 8, !tbaa !142
  store i64 %4, ptr %12, align 8, !tbaa !146
  store i32 %5, ptr %13, align 4, !tbaa !9
  store i32 %6, ptr %14, align 4, !tbaa !9
  call void @llvm.lifetime.start.p0(i64 4, ptr %15) #8
  store i32 6, ptr %15, align 4, !tbaa !9
  call void @llvm.lifetime.start.p0(i64 8, ptr %16) #8
  %21 = load ptr, ptr %11, align 8, !tbaa !142
  store ptr %21, ptr %16, align 8, !tbaa !142
  call void @llvm.lifetime.start.p0(i64 4, ptr %17) #8
  store i32 0, ptr %17, align 4, !tbaa !9
  br label %22

22:                                               ; preds = %85, %7
  %23 = load i32, ptr %17, align 4, !tbaa !9
  %24 = load i32, ptr %14, align 4, !tbaa !9
  %25 = icmp slt i32 %23, %24
  br i1 %25, label %27, label %26

26:                                               ; preds = %22
  store i32 2, ptr %18, align 4
  call void @llvm.lifetime.end.p0(i64 4, ptr %17) #8
  br label %88

27:                                               ; preds = %22
  call void @llvm.lifetime.start.p0(i64 8, ptr %19) #8
  %28 = load ptr, ptr %16, align 8, !tbaa !142
  store ptr %28, ptr %19, align 8, !tbaa !142
  call void @llvm.lifetime.start.p0(i64 4, ptr %20) #8
  store i32 0, ptr %20, align 4, !tbaa !9
  br label %29

29:                                               ; preds = %72, %27
  %30 = load i32, ptr %20, align 4, !tbaa !9
  %31 = load i32, ptr %13, align 4, !tbaa !9
  %32 = icmp slt i32 %30, %31
  br i1 %32, label %34, label %33

33:                                               ; preds = %29
  store i32 5, ptr %18, align 4
  call void @llvm.lifetime.end.p0(i64 4, ptr %20) #8
  br label %75

34:                                               ; preds = %29
  %35 = load ptr, ptr %19, align 8, !tbaa !142
  %36 = getelementptr inbounds i16, ptr %35, i64 1
  %37 = load i16, ptr %36, align 2, !tbaa !148
  %38 = sext i16 %37 to i32
  %39 = ashr i32 %38, 6
  %40 = load ptr, ptr %19, align 8, !tbaa !142
  %41 = getelementptr inbounds i16, ptr %40, i64 -1
  %42 = load i16, ptr %41, align 2, !tbaa !148
  %43 = sext i16 %42 to i32
  %44 = ashr i32 %43, 6
  %45 = sub nsw i32 %39, %44
  %46 = trunc i32 %45 to i16
  %47 = load ptr, ptr %8, align 8, !tbaa !142
  %48 = load i32, ptr %20, align 4, !tbaa !9
  %49 = sext i32 %48 to i64
  %50 = getelementptr inbounds i16, ptr %47, i64 %49
  store i16 %46, ptr %50, align 2, !tbaa !148
  %51 = load ptr, ptr %19, align 8, !tbaa !142
  %52 = load i64, ptr %12, align 8, !tbaa !146
  %53 = getelementptr inbounds i16, ptr %51, i64 %52
  %54 = load i16, ptr %53, align 2, !tbaa !148
  %55 = sext i16 %54 to i32
  %56 = ashr i32 %55, 6
  %57 = load ptr, ptr %19, align 8, !tbaa !142
  %58 = load i64, ptr %12, align 8, !tbaa !146
  %59 = sub nsw i64 0, %58
  %60 = getelementptr inbounds i16, ptr %57, i64 %59
  %61 = load i16, ptr %60, align 2, !tbaa !148
  %62 = sext i16 %61 to i32
  %63 = ashr i32 %62, 6
  %64 = sub nsw i32 %56, %63
  %65 = trunc i32 %64 to i16
  %66 = load ptr, ptr %9, align 8, !tbaa !142
  %67 = load i32, ptr %20, align 4, !tbaa !9
  %68 = sext i32 %67 to i64
  %69 = getelementptr inbounds i16, ptr %66, i64 %68
  store i16 %65, ptr %69, align 2, !tbaa !148
  %70 = load ptr, ptr %19, align 8, !tbaa !142
  %71 = getelementptr inbounds nuw i16, ptr %70, i32 1
  store ptr %71, ptr %19, align 8, !tbaa !142
  br label %72

72:                                               ; preds = %34
  %73 = load i32, ptr %20, align 4, !tbaa !9
  %74 = add nsw i32 %73, 1
  store i32 %74, ptr %20, align 4, !tbaa !9
  br label %29, !llvm.loop !779

75:                                               ; preds = %33
  %76 = load i64, ptr %10, align 8, !tbaa !146
  %77 = load ptr, ptr %8, align 8, !tbaa !142
  %78 = getelementptr inbounds i16, ptr %77, i64 %76
  store ptr %78, ptr %8, align 8, !tbaa !142
  %79 = load i64, ptr %10, align 8, !tbaa !146
  %80 = load ptr, ptr %9, align 8, !tbaa !142
  %81 = getelementptr inbounds i16, ptr %80, i64 %79
  store ptr %81, ptr %9, align 8, !tbaa !142
  %82 = load i64, ptr %12, align 8, !tbaa !146
  %83 = load ptr, ptr %16, align 8, !tbaa !142
  %84 = getelementptr inbounds i16, ptr %83, i64 %82
  store ptr %84, ptr %16, align 8, !tbaa !142
  call void @llvm.lifetime.end.p0(i64 8, ptr %19) #8
  br label %85

85:                                               ; preds = %75
  %86 = load i32, ptr %17, align 4, !tbaa !9
  %87 = add nsw i32 %86, 1
  store i32 %87, ptr %17, align 4, !tbaa !9
  br label %22, !llvm.loop !780

88:                                               ; preds = %26
  call void @llvm.lifetime.end.p0(i64 8, ptr %16) #8
  call void @llvm.lifetime.end.p0(i64 4, ptr %15) #8
  ret void
}

; Function Attrs: nounwind uwtable
define internal void @apply_prof_uni_w_8(ptr noundef %0, i64 noundef %1, ptr noundef %2, ptr noundef %3, ptr noundef %4, i32 noundef %5, i32 noundef %6, i32 noundef %7) #0 {
  %9 = alloca ptr, align 8
  %10 = alloca i64, align 8
  %11 = alloca ptr, align 8
  %12 = alloca ptr, align 8
  %13 = alloca ptr, align 8
  %14 = alloca i32, align 4
  %15 = alloca i32, align 4
  %16 = alloca i32, align 4
  %17 = alloca i32, align 4
  %18 = alloca ptr, align 8
  %19 = alloca i64, align 8
  %20 = alloca i32, align 4
  %21 = alloca i32, align 4
  %22 = alloca i32, align 4
  %23 = alloca [16 x i16], align 16
  %24 = alloca [16 x i16], align 16
  %25 = alloca i32, align 4
  %26 = alloca i32, align 4
  %27 = alloca i32, align 4
  %28 = alloca i32, align 4
  %29 = alloca i32, align 4
  %30 = alloca i32, align 4
  store ptr %0, ptr %9, align 8, !tbaa !144
  store i64 %1, ptr %10, align 8, !tbaa !146
  store ptr %2, ptr %11, align 8, !tbaa !142
  store ptr %3, ptr %12, align 8, !tbaa !142
  store ptr %4, ptr %13, align 8, !tbaa !142
  store i32 %5, ptr %14, align 4, !tbaa !9
  store i32 %6, ptr %15, align 4, !tbaa !9
  store i32 %7, ptr %16, align 4, !tbaa !9
  call void @llvm.lifetime.start.p0(i64 4, ptr %17) #8
  store i32 8192, ptr %17, align 4, !tbaa !9
  call void @llvm.lifetime.start.p0(i64 8, ptr %18) #8
  %31 = load ptr, ptr %9, align 8, !tbaa !144
  store ptr %31, ptr %18, align 8, !tbaa !144
  call void @llvm.lifetime.start.p0(i64 8, ptr %19) #8
  %32 = load i64, ptr %10, align 8, !tbaa !146
  %33 = udiv i64 %32, 1
  store i64 %33, ptr %19, align 8, !tbaa !146
  call void @llvm.lifetime.start.p0(i64 4, ptr %20) #8
  %34 = load i32, ptr %14, align 4, !tbaa !9
  %35 = add nsw i32 %34, 6
  store i32 %35, ptr %20, align 4, !tbaa !9
  call void @llvm.lifetime.start.p0(i64 4, ptr %21) #8
  %36 = load i32, ptr %20, align 4, !tbaa !9
  %37 = sub nsw i32 %36, 1
  %38 = shl i32 1, %37
  store i32 %38, ptr %21, align 4, !tbaa !9
  call void @llvm.lifetime.start.p0(i64 4, ptr %22) #8
  %39 = load i32, ptr %16, align 4, !tbaa !9
  %40 = mul nsw i32 %39, 1
  store i32 %40, ptr %22, align 4, !tbaa !9
  call void @llvm.lifetime.start.p0(i64 32, ptr %23) #8
  call void @llvm.lifetime.start.p0(i64 32, ptr %24) #8
  %41 = getelementptr inbounds [16 x i16], ptr %23, i64 0, i64 0
  %42 = getelementptr inbounds [16 x i16], ptr %24, i64 0, i64 0
  %43 = load ptr, ptr %11, align 8, !tbaa !142
  call void @prof_grad_filter_8(ptr noundef %41, ptr noundef %42, i64 noundef 4, ptr noundef %43, i64 noundef 128, i32 noundef 4, i32 noundef 4)
  call void @llvm.lifetime.start.p0(i64 4, ptr %25) #8
  store i32 0, ptr %25, align 4, !tbaa !9
  br label %44

44:                                               ; preds = %115, %8
  %45 = load i32, ptr %25, align 4, !tbaa !9
  %46 = icmp slt i32 %45, 4
  br i1 %46, label %48, label %47

47:                                               ; preds = %44
  store i32 2, ptr %26, align 4
  call void @llvm.lifetime.end.p0(i64 4, ptr %25) #8
  br label %118

48:                                               ; preds = %44
  call void @llvm.lifetime.start.p0(i64 4, ptr %27) #8
  store i32 0, ptr %27, align 4, !tbaa !9
  br label %49

49:                                               ; preds = %106, %48
  %50 = load i32, ptr %27, align 4, !tbaa !9
  %51 = icmp slt i32 %50, 4
  br i1 %51, label %53, label %52

52:                                               ; preds = %49
  store i32 5, ptr %26, align 4
  call void @llvm.lifetime.end.p0(i64 4, ptr %27) #8
  br label %109

53:                                               ; preds = %49
  call void @llvm.lifetime.start.p0(i64 4, ptr %28) #8
  %54 = load i32, ptr %25, align 4, !tbaa !9
  %55 = mul nsw i32 %54, 4
  %56 = load i32, ptr %27, align 4, !tbaa !9
  %57 = add nsw i32 %55, %56
  store i32 %57, ptr %28, align 4, !tbaa !9
  call void @llvm.lifetime.start.p0(i64 4, ptr %29) #8
  %58 = load i32, ptr %28, align 4, !tbaa !9
  %59 = sext i32 %58 to i64
  %60 = getelementptr inbounds [16 x i16], ptr %23, i64 0, i64 %59
  %61 = load i16, ptr %60, align 2, !tbaa !148
  %62 = sext i16 %61 to i32
  %63 = load ptr, ptr %12, align 8, !tbaa !142
  %64 = load i32, ptr %28, align 4, !tbaa !9
  %65 = sext i32 %64 to i64
  %66 = getelementptr inbounds i16, ptr %63, i64 %65
  %67 = load i16, ptr %66, align 2, !tbaa !148
  %68 = sext i16 %67 to i32
  %69 = mul nsw i32 %62, %68
  %70 = load i32, ptr %28, align 4, !tbaa !9
  %71 = sext i32 %70 to i64
  %72 = getelementptr inbounds [16 x i16], ptr %24, i64 0, i64 %71
  %73 = load i16, ptr %72, align 2, !tbaa !148
  %74 = sext i16 %73 to i32
  %75 = load ptr, ptr %13, align 8, !tbaa !142
  %76 = load i32, ptr %28, align 4, !tbaa !9
  %77 = sext i32 %76 to i64
  %78 = getelementptr inbounds i16, ptr %75, i64 %77
  %79 = load i16, ptr %78, align 2, !tbaa !148
  %80 = sext i16 %79 to i32
  %81 = mul nsw i32 %74, %80
  %82 = add nsw i32 %69, %81
  store i32 %82, ptr %29, align 4, !tbaa !9
  call void @llvm.lifetime.start.p0(i64 4, ptr %30) #8
  %83 = load ptr, ptr %11, align 8, !tbaa !142
  %84 = load i32, ptr %27, align 4, !tbaa !9
  %85 = sext i32 %84 to i64
  %86 = getelementptr inbounds i16, ptr %83, i64 %85
  %87 = load i16, ptr %86, align 2, !tbaa !148
  %88 = sext i16 %87 to i32
  %89 = load i32, ptr %29, align 4, !tbaa !9
  %90 = call i32 @av_clip_c(i32 noundef %89, i32 noundef -8192, i32 noundef 8191) #9
  %91 = add nsw i32 %88, %90
  store i32 %91, ptr %30, align 4, !tbaa !9
  %92 = load i32, ptr %30, align 4, !tbaa !9
  %93 = load i32, ptr %15, align 4, !tbaa !9
  %94 = mul nsw i32 %92, %93
  %95 = load i32, ptr %21, align 4, !tbaa !9
  %96 = add nsw i32 %94, %95
  %97 = load i32, ptr %20, align 4, !tbaa !9
  %98 = ashr i32 %96, %97
  %99 = load i32, ptr %22, align 4, !tbaa !9
  %100 = add nsw i32 %98, %99
  %101 = call zeroext i8 @av_clip_uint8_c(i32 noundef %100) #9
  %102 = load ptr, ptr %18, align 8, !tbaa !144
  %103 = load i32, ptr %27, align 4, !tbaa !9
  %104 = sext i32 %103 to i64
  %105 = getelementptr inbounds i8, ptr %102, i64 %104
  store i8 %101, ptr %105, align 1, !tbaa !152
  call void @llvm.lifetime.end.p0(i64 4, ptr %30) #8
  call void @llvm.lifetime.end.p0(i64 4, ptr %29) #8
  call void @llvm.lifetime.end.p0(i64 4, ptr %28) #8
  br label %106

106:                                              ; preds = %53
  %107 = load i32, ptr %27, align 4, !tbaa !9
  %108 = add nsw i32 %107, 1
  store i32 %108, ptr %27, align 4, !tbaa !9
  br label %49, !llvm.loop !767

109:                                              ; preds = %52
  %110 = load ptr, ptr %11, align 8, !tbaa !142
  %111 = getelementptr inbounds i16, ptr %110, i64 128
  store ptr %111, ptr %11, align 8, !tbaa !142
  %112 = load i64, ptr %19, align 8, !tbaa !146
  %113 = load ptr, ptr %18, align 8, !tbaa !144
  %114 = getelementptr inbounds i8, ptr %113, i64 %112
  store ptr %114, ptr %18, align 8, !tbaa !144
  br label %115

115:                                              ; preds = %109
  %116 = load i32, ptr %25, align 4, !tbaa !9
  %117 = add nsw i32 %116, 1
  store i32 %117, ptr %25, align 4, !tbaa !9
  br label %44, !llvm.loop !768

118:                                              ; preds = %47
  call void @llvm.lifetime.end.p0(i64 32, ptr %24) #8
  call void @llvm.lifetime.end.p0(i64 32, ptr %23) #8
  call void @llvm.lifetime.end.p0(i64 4, ptr %22) #8
  call void @llvm.lifetime.end.p0(i64 4, ptr %21) #8
  call void @llvm.lifetime.end.p0(i64 4, ptr %20) #8
  call void @llvm.lifetime.end.p0(i64 8, ptr %19) #8
  call void @llvm.lifetime.end.p0(i64 8, ptr %18) #8
  call void @llvm.lifetime.end.p0(i64 4, ptr %17) #8
  ret void
}