; Function Attrs: nofree norecurse nosync nounwind memory(argmem: readwrite) uwtable
define internal void @apply_prof_uni_w_8(ptr noundef writeonly captures(none) %0, i64 noundef %1, ptr noundef readonly captures(none) %2, ptr noundef readonly captures(none) %3, ptr noundef readonly captures(none) %4, i32 noundef %5, i32 noundef %6, i32 noundef %7) #2 {
  %9 = alloca [16 x i16], align 16
  %10 = alloca [16 x i16], align 16
  call void @llvm.lifetime.start.p0(i64 32, ptr nonnull %9) #14
  call void @llvm.lifetime.start.p0(i64 32, ptr nonnull %10) #14
  br label %.preheader.us.i

.preheader.us.i:                                  ; preds = %._crit_edge.us.i, %8
  %.02535.us.i = phi i32 [ %29, %._crit_edge.us.i ], [ 0, %8 ]
  %.02634.us.i = phi ptr [ %28, %._crit_edge.us.i ], [ %2, %8 ]
  %.02733.us.i = phi ptr [ %26, %._crit_edge.us.i ], [ %9, %8 ]
  %.02832.us.i = phi ptr [ %27, %._crit_edge.us.i ], [ %10, %8 ]
  br label %11

11:                                               ; preds = %11, %.preheader.us.i
  %indvars.iv.i = phi i64 [ 0, %.preheader.us.i ], [ %indvars.iv.next.i, %11 ]
  %.02430.us.i = phi ptr [ %.02634.us.i, %.preheader.us.i ], [ %12, %11 ]
  %12 = getelementptr inbounds nuw i8, ptr %.02430.us.i, i64 2
  %13 = load i16, ptr %12, align 2, !tbaa !124
  %14 = ashr i16 %13, 6
  %15 = getelementptr inbounds i8, ptr %.02430.us.i, i64 -2
  %16 = load i16, ptr %15, align 2, !tbaa !124
  %17 = ashr i16 %16, 6
  %narrow.us.i = sub nsw i16 %14, %17
  %18 = getelementptr inbounds nuw i16, ptr %.02733.us.i, i64 %indvars.iv.i
  store i16 %narrow.us.i, ptr %18, align 2, !tbaa !124
  %19 = getelementptr inbounds nuw i8, ptr %.02430.us.i, i64 256
  %20 = load i16, ptr %19, align 2, !tbaa !124
  %21 = ashr i16 %20, 6
  %22 = getelementptr inbounds i8, ptr %.02430.us.i, i64 -256
  %23 = load i16, ptr %22, align 2, !tbaa !124
  %24 = ashr i16 %23, 6
  %narrow29.us.i = sub nsw i16 %21, %24
  %25 = getelementptr inbounds nuw i16, ptr %.02832.us.i, i64 %indvars.iv.i
  store i16 %narrow29.us.i, ptr %25, align 2, !tbaa !124
  %indvars.iv.next.i = add nuw nsw i64 %indvars.iv.i, 1
  %exitcond.not.i = icmp eq i64 %indvars.iv.next.i, 4
  br i1 %exitcond.not.i, label %._crit_edge.us.i, label %11, !llvm.loop !734

._crit_edge.us.i:                                 ; preds = %11
  %26 = getelementptr inbounds nuw i8, ptr %.02733.us.i, i64 8
  %27 = getelementptr inbounds nuw i8, ptr %.02832.us.i, i64 8
  %28 = getelementptr inbounds nuw i8, ptr %.02634.us.i, i64 256
  %29 = add nuw nsw i32 %.02535.us.i, 1
  %exitcond39.not.i = icmp eq i32 %29, 4
  br i1 %exitcond39.not.i, label %.preheader.preheader, label %.preheader.us.i, !llvm.loop !735

.preheader.preheader:                             ; preds = %._crit_edge.us.i
  %30 = add nsw i32 %5, 6
  %31 = add nsw i32 %5, 5
  %32 = shl nuw i32 1, %31
  br label %.preheader

.preheader:                                       ; preds = %.preheader.preheader, %prof_grad_filter_8.exit
  %indvars.iv39 = phi i64 [ 0, %.preheader.preheader ], [ %indvars.iv.next40, %prof_grad_filter_8.exit ]
  %.037 = phi ptr [ %2, %.preheader.preheader ], [ %35, %prof_grad_filter_8.exit ]
  %.03036 = phi ptr [ %0, %.preheader.preheader ], [ %36, %prof_grad_filter_8.exit ]
  %33 = shl nuw nsw i64 %indvars.iv39, 2
  br label %37

34:                                               ; preds = %prof_grad_filter_8.exit
  call void @llvm.lifetime.end.p0(i64 32, ptr nonnull %10) #14
  call void @llvm.lifetime.end.p0(i64 32, ptr nonnull %9) #14
  ret void

prof_grad_filter_8.exit:                          ; preds = %37
  %35 = getelementptr inbounds nuw i8, ptr %.037, i64 256
  %36 = getelementptr inbounds i8, ptr %.03036, i64 %1
  %indvars.iv.next40 = add nuw nsw i64 %indvars.iv39, 1
  %exitcond42.not = icmp eq i64 %indvars.iv.next40, 4
  br i1 %exitcond42.not, label %34, label %.preheader, !llvm.loop !740

37:                                               ; preds = %.preheader, %37
  %indvars.iv = phi i64 [ 0, %.preheader ], [ %indvars.iv.next, %37 ]
  %38 = add nuw nsw i64 %indvars.iv, %33
  %39 = getelementptr inbounds nuw [16 x i16], ptr %9, i64 0, i64 %38
  %40 = load i16, ptr %39, align 2, !tbaa !124
  %41 = sext i16 %40 to i32
  %42 = getelementptr inbounds nuw i16, ptr %3, i64 %38
  %43 = load i16, ptr %42, align 2, !tbaa !124
  %44 = sext i16 %43 to i32
  %45 = mul nsw i32 %44, %41
  %46 = getelementptr inbounds nuw [16 x i16], ptr %10, i64 0, i64 %38
  %47 = load i16, ptr %46, align 2, !tbaa !124
  %48 = sext i16 %47 to i32
  %49 = getelementptr inbounds nuw i16, ptr %4, i64 %38
  %50 = load i16, ptr %49, align 2, !tbaa !124
  %51 = sext i16 %50 to i32
  %52 = mul nsw i32 %51, %48
  %53 = add nsw i32 %52, %45
  %54 = getelementptr inbounds nuw i16, ptr %.037, i64 %indvars.iv
  %55 = load i16, ptr %54, align 2, !tbaa !124
  %56 = sext i16 %55 to i32
  %57 = tail call i32 @llvm.smax.i32(i32 %53, i32 -8192)
  %.0.i = tail call i32 @llvm.smin.i32(i32 %57, i32 8191)
  %58 = add nsw i32 %.0.i, %56
  %59 = mul nsw i32 %58, %6
  %60 = add nsw i32 %59, %32
  %61 = ashr i32 %60, %30
  %62 = add nsw i32 %61, %7
  %.not.i = icmp ult i32 %62, 256
  %isnotneg.i = icmp sgt i32 %62, -1
  %63 = sext i1 %isnotneg.i to i8
  %64 = trunc nuw i32 %62 to i8
  %.0.i33 = select i1 %.not.i, i8 %64, i8 %63
  %65 = getelementptr inbounds nuw i8, ptr %.03036, i64 %indvars.iv
  store i8 %.0.i33, ptr %65, align 1, !tbaa !128
  %indvars.iv.next = add nuw nsw i64 %indvars.iv, 1
  %exitcond.not = icmp eq i64 %indvars.iv.next, 4
  br i1 %exitcond.not, label %prof_grad_filter_8.exit, label %37, !llvm.loop !741
}